target datalayout = "e-m:e-p270:32:32-p271:32:32-p272:64:64-i64:64-i128:128-f80:128-n8:16:32:64-S128"
target triple = "x86_64-pc-linux-gnu"

%union.ufmt_args = type { i64 }
%struct.u_printf_spec_info = type { i32, i32, i16, i16, i16, i8, i8, i8, i8, i8, i8, i8, i8, i8 }
%struct.u_printf_stream_handler = type { ptr, ptr }

@_ZL9gSpaceStr = internal constant [2 x i16] [i16 32, i16 0], align 2

; Function Attrs: mustprogress uwtable
define internal void @_ZL19u_printf_reset_signPPvPK18u_printf_spec_infoPDsPiP10UErrorCode(ptr noundef %0, ptr noundef %1, ptr noundef %2, ptr noundef %3, ptr noundef %4) #0 {
  %6 = alloca ptr, align 8
  %7 = alloca ptr, align 8
  %8 = alloca ptr, align 8
  %9 = alloca ptr, align 8
  %10 = alloca ptr, align 8
  store ptr %0, ptr %6, align 8, !tbaa !86
  store ptr %1, ptr %7, align 8, !tbaa !19
  store ptr %2, ptr %8, align 8, !tbaa !8
  store ptr %3, ptr %9, align 8, !tbaa !15
  store ptr %4, ptr %10, align 8, !tbaa !10
  %11 = load ptr, ptr %7, align 8, !tbaa !19
  %12 = getelementptr inbounds nuw %struct.u_printf_spec_info, ptr %11, i32 0, i32 8
  %13 = load i8, ptr %12, align 1, !tbaa !47
  %14 = icmp ne i8 %13, 0
  br i1 %14, label %15, label %21

15:                                               ; preds = %5
  %16 = load ptr, ptr %6, align 8, !tbaa !86
  %17 = load ptr, ptr %8, align 8, !tbaa !8
  %18 = load ptr, ptr %9, align 8, !tbaa !15
  %19 = load i32, ptr %18, align 4, !tbaa !36
  %20 = load ptr, ptr %10, align 8, !tbaa !10
  call void @unum_setTextAttribute_77(ptr noundef %16, i32 noundef 0, ptr noundef %17, i32 noundef %19, ptr noundef %20)
  br label %21

21:                                               ; preds = %15, %5
  ret void
}

; Function Attrs: inlinehint mustprogress nounwind uwtable
define internal noundef signext i8 @_ZL9U_FAILURE10UErrorCode(i32 noundef %0) #2 {
  %2 = alloca i32, align 4
  store i32 %0, ptr %2, align 4, !tbaa !23
  %3 = load i32, ptr %2, align 4, !tbaa !23
  %4 = icmp sgt i32 %3, 0
  %5 = zext i1 %4 to i8
  ret i8 %5
}

; Function Attrs: mustprogress uwtable
define internal void @_ZL17u_printf_set_signPPvPK18u_printf_spec_infoPDsPiP10UErrorCode(ptr noundef %0, ptr noundef %1, ptr noundef %2, ptr noundef %3, ptr noundef %4) #0 {
  %6 = alloca ptr, align 8
  %7 = alloca ptr, align 8
  %8 = alloca ptr, align 8
  %9 = alloca ptr, align 8
  %10 = alloca ptr, align 8
  %11 = alloca [8 x i16], align 16
  %12 = alloca i32, align 4
  store ptr %0, ptr %6, align 8, !tbaa !86
  store ptr %1, ptr %7, align 8, !tbaa !19
  store ptr %2, ptr %8, align 8, !tbaa !8
  store ptr %3, ptr %9, align 8, !tbaa !15
  store ptr %4, ptr %10, align 8, !tbaa !10
  %13 = load ptr, ptr %7, align 8, !tbaa !19
  %14 = getelementptr inbounds nuw %struct.u_printf_spec_info, ptr %13, i32 0, i32 8
  %15 = load i8, ptr %14, align 1, !tbaa !47
  %16 = icmp ne i8 %15, 0
  br i1 %16, label %17, label %42

17:                                               ; preds = %5
  %18 = load ptr, ptr %6, align 8, !tbaa !86
  %19 = load ptr, ptr %8, align 8, !tbaa !8
  %20 = load ptr, ptr %9, align 8, !tbaa !15
  %21 = load i32, ptr %20, align 4, !tbaa !36
  %22 = load ptr, ptr %10, align 8, !tbaa !10
  %23 = call i32 @unum_getTextAttribute_77(ptr noundef %18, i32 noundef 0, ptr noundef %19, i32 noundef %21, ptr noundef %22)
  %24 = load ptr, ptr %9, align 8, !tbaa !15
  store i32 %23, ptr %24, align 4, !tbaa !36
  %25 = load ptr, ptr %7, align 8, !tbaa !19
  %26 = getelementptr inbounds nuw %struct.u_printf_spec_info, ptr %25, i32 0, i32 6
  %27 = load i8, ptr %26, align 1, !tbaa !48
  %28 = icmp ne i8 %27, 0
  br i1 %28, label %29, label %32

29:                                               ; preds = %17
  %30 = load ptr, ptr %6, align 8, !tbaa !86
  %31 = load ptr, ptr %10, align 8, !tbaa !10
  call void @unum_setTextAttribute_77(ptr noundef %30, i32 noundef 0, ptr noundef @_ZL9gSpaceStr, i32 noundef 1, ptr noundef %31)
  br label %41

32:                                               ; preds = %17
  call void @llvm.lifetime.start.p0(i64 16, ptr %11) #9
  call void @llvm.lifetime.start.p0(i64 4, ptr %12) #9
  %33 = load ptr, ptr %6, align 8, !tbaa !86
  %34 = getelementptr inbounds [8 x i16], ptr %11, i64 0, i64 0
  %35 = load ptr, ptr %10, align 8, !tbaa !10
  %36 = call i32 @unum_getSymbol_77(ptr noundef %33, i32 noundef 7, ptr noundef %34, i32 noundef 8, ptr noundef %35)
  store i32 %36, ptr %12, align 4, !tbaa !36
  %37 = load ptr, ptr %6, align 8, !tbaa !86
  %38 = getelementptr inbounds [8 x i16], ptr %11, i64 0, i64 0
  %39 = load i32, ptr %12, align 4, !tbaa !36
  %40 = load ptr, ptr %10, align 8, !tbaa !10
  call void @unum_setTextAttribute_77(ptr noundef %37, i32 noundef 0, ptr noundef %38, i32 noundef %39, ptr noundef %40)
  call void @llvm.lifetime.end.p0(i64 4, ptr %12) #9
  call void @llvm.lifetime.end.p0(i64 16, ptr %11) #9
  br label %41

41:                                               ; preds = %32, %29
  br label %44

42:                                               ; preds = %5
  %43 = load ptr, ptr %9, align 8, !tbaa !15
  store i32 0, ptr %43, align 4, !tbaa !36
  br label %44

44:                                               ; preds = %42, %41
  ret void
}

; Function Attrs: mustprogress uwtable
define internal noundef i32 @_ZL24u_printf_integer_handlerPK23u_printf_stream_handlerPvP13ULocaleBundlePK18u_printf_spec_infoPK9ufmt_args(ptr noundef %0, ptr noundef %1, ptr noundef %2, ptr noundef %3, ptr noundef %4) #0 {
  %6 = alloca i32, align 4
  %7 = alloca ptr, align 8
  %8 = alloca ptr, align 8
  %9 = alloca ptr, align 8
  %10 = alloca ptr, align 8
  %11 = alloca ptr, align 8
  %12 = alloca i64, align 8
  %13 = alloca ptr, align 8
  %14 = alloca [1024 x i16], align 16
  %15 = alloca [1024 x i16], align 16
  %16 = alloca i32, align 4
  %17 = alloca i32, align 4
  %18 = alloca i32, align 4
  %19 = alloca i32, align 4
  %20 = alloca i32, align 4
  %21 = alloca i32, align 4
  store ptr %0, ptr %7, align 8, !tbaa !3
  store ptr %1, ptr %8, align 8, !tbaa !10
  store ptr %2, ptr %9, align 8, !tbaa !13
  store ptr %3, ptr %10, align 8, !tbaa !19
  store ptr %4, ptr %11, align 8, !tbaa !21
  call void @llvm.lifetime.start.p0(i64 8, ptr %12) #9
  %22 = load ptr, ptr %11, align 8, !tbaa !21
  %23 = getelementptr inbounds %union.ufmt_args, ptr %22, i64 0
  %24 = load i64, ptr %23, align 8, !tbaa !69
  store i64 %24, ptr %12, align 8, !tbaa !70
  call void @llvm.lifetime.start.p0(i64 8, ptr %13) #9
  call void @llvm.lifetime.start.p0(i64 2048, ptr %14) #9
  call void @llvm.lifetime.start.p0(i64 2048, ptr %15) #9
  call void @llvm.lifetime.start.p0(i64 4, ptr %16) #9
  store i32 2048, ptr %16, align 4, !tbaa !36
  call void @llvm.lifetime.start.p0(i64 4, ptr %17) #9
  store i32 -1, ptr %17, align 4, !tbaa !36
  call void @llvm.lifetime.start.p0(i64 4, ptr %18) #9
  call void @llvm.lifetime.start.p0(i64 4, ptr %19) #9
  store i32 0, ptr %19, align 4, !tbaa !23
  %25 = getelementptr inbounds [1024 x i16], ptr %15, i64 0, i64 0
  store i16 0, ptr %25, align 16, !tbaa !30
  %26 = load ptr, ptr %10, align 8, !tbaa !19
  %27 = getelementptr inbounds nuw %struct.u_printf_spec_info, ptr %26, i32 0, i32 11
  %28 = load i8, ptr %27, align 4, !tbaa !56
  %29 = icmp ne i8 %28, 0
  br i1 %29, label %30, label %34

30:                                               ; preds = %5
  %31 = load i64, ptr %12, align 8, !tbaa !70
  %32 = trunc i64 %31 to i16
  %33 = sext i16 %32 to i64
  store i64 %33, ptr %12, align 8, !tbaa !70
  br label %44

34:                                               ; preds = %5
  %35 = load ptr, ptr %10, align 8, !tbaa !19
  %36 = getelementptr inbounds nuw %struct.u_printf_spec_info, ptr %35, i32 0, i32 13
  %37 = load i8, ptr %36, align 2, !tbaa !57
  %38 = icmp ne i8 %37, 0
  br i1 %38, label %43, label %39

39:                                               ; preds = %34
  %40 = load i64, ptr %12, align 8, !tbaa !70
  %41 = trunc i64 %40 to i32
  %42 = sext i32 %41 to i64
  store i64 %42, ptr %12, align 8, !tbaa !70
  br label %43

43:                                               ; preds = %39, %34
  br label %44

44:                                               ; preds = %43, %30
  %45 = load ptr, ptr %9, align 8, !tbaa !13
  %46 = call ptr @u_locbund_getNumberFormat_77(ptr noundef %45, i32 noundef 1)
  store ptr %46, ptr %13, align 8, !tbaa !86
  %47 = load ptr, ptr %13, align 8, !tbaa !86
  %48 = icmp eq ptr %47, null
  br i1 %48, label %49, label %50

49:                                               ; preds = %44
  store i32 0, ptr %6, align 4
  store i32 1, ptr %20, align 4
  br label %104

50:                                               ; preds = %44
  %51 = load ptr, ptr %10, align 8, !tbaa !19
  %52 = getelementptr inbounds nuw %struct.u_printf_spec_info, ptr %51, i32 0, i32 0
  %53 = load i32, ptr %52, align 4, !tbaa !42
  %54 = icmp ne i32 %53, -1
  br i1 %54, label %55, label %62

55:                                               ; preds = %50
  %56 = load ptr, ptr %13, align 8, !tbaa !86
  %57 = call i32 @unum_getAttribute_77(ptr noundef %56, i32 noundef 4)
  store i32 %57, ptr %17, align 4, !tbaa !36
  %58 = load ptr, ptr %13, align 8, !tbaa !86
  %59 = load ptr, ptr %10, align 8, !tbaa !19
  %60 = getelementptr inbounds nuw %struct.u_printf_spec_info, ptr %59, i32 0, i32 0
  %61 = load i32, ptr %60, align 4, !tbaa !42
  call void @unum_setAttribute_77(ptr noundef %58, i32 noundef 4, i32 noundef %61)
  br label %62

62:                                               ; preds = %55, %50
  %63 = load ptr, ptr %10, align 8, !tbaa !19
  %64 = getelementptr inbounds nuw %struct.u_printf_spec_info, ptr %63, i32 0, i32 8
  %65 = load i8, ptr %64, align 1, !tbaa !47
  %66 = icmp ne i8 %65, 0
  br i1 %66, label %67, label %71

67:                                               ; preds = %62
  %68 = load ptr, ptr %13, align 8, !tbaa !86
  %69 = load ptr, ptr %10, align 8, !tbaa !19
  %70 = getelementptr inbounds [1024 x i16], ptr %15, i64 0, i64 0
  call void @_ZL17u_printf_set_signPPvPK18u_printf_spec_infoPDsPiP10UErrorCode(ptr noundef %68, ptr noundef %69, ptr noundef %70, ptr noundef %16, ptr noundef %19)
  br label %71

71:                                               ; preds = %67, %62
  %72 = load ptr, ptr %13, align 8, !tbaa !86
  %73 = load i64, ptr %12, align 8, !tbaa !70
  %74 = getelementptr inbounds [1024 x i16], ptr %14, i64 0, i64 0
  %75 = call i32 @unum_formatInt64_77(ptr noundef %72, i64 noundef %73, ptr noundef %74, i32 noundef 1024, ptr noundef null, ptr noundef %19)
  store i32 %75, ptr %18, align 4, !tbaa !36
  %76 = load i32, ptr %19, align 4, !tbaa !23
  %77 = call noundef signext i8 @_ZL9U_FAILURE10UErrorCode(i32 noundef %76)
  %78 = icmp ne i8 %77, 0
  br i1 %78, label %79, label %80

79:                                               ; preds = %71
  store i32 0, ptr %18, align 4, !tbaa !36
  br label %80

80:                                               ; preds = %79, %71
  %81 = load i32, ptr %17, align 4, !tbaa !36
  %82 = icmp ne i32 %81, -1
  br i1 %82, label %83, label %86

83:                                               ; preds = %80
  %84 = load ptr, ptr %13, align 8, !tbaa !86
  %85 = load i32, ptr %17, align 4, !tbaa !36
  call void @unum_setAttribute_77(ptr noundef %84, i32 noundef 4, i32 noundef %85)
  br label %86

86:                                               ; preds = %83, %80
  %87 = load ptr, ptr %10, align 8, !tbaa !19
  %88 = getelementptr inbounds nuw %struct.u_printf_spec_info, ptr %87, i32 0, i32 8
  %89 = load i8, ptr %88, align 1, !tbaa !47
  %90 = icmp ne i8 %89, 0
  br i1 %90, label %91, label %95

91:                                               ; preds = %86
  call void @llvm.lifetime.start.p0(i64 4, ptr %21) #9
  store i32 0, ptr %21, align 4, !tbaa !23
  %92 = load ptr, ptr %13, align 8, !tbaa !86
  %93 = load ptr, ptr %10, align 8, !tbaa !19
  %94 = getelementptr inbounds [1024 x i16], ptr %15, i64 0, i64 0
  call void @_ZL19u_printf_reset_signPPvPK18u_printf_spec_infoPDsPiP10UErrorCode(ptr noundef %92, ptr noundef %93, ptr noundef %94, ptr noundef %16, ptr noundef %21)
  call void @llvm.lifetime.end.p0(i64 4, ptr %21) #9
  br label %95

95:                                               ; preds = %91, %86
  %96 = load ptr, ptr %7, align 8, !tbaa !3
  %97 = getelementptr inbounds nuw %struct.u_printf_stream_handler, ptr %96, i32 0, i32 1
  %98 = load ptr, ptr %97, align 8, !tbaa !85
  %99 = load ptr, ptr %8, align 8, !tbaa !10
  %100 = load ptr, ptr %10, align 8, !tbaa !19
  %101 = getelementptr inbounds [1024 x i16], ptr %14, i64 0, i64 0
  %102 = load i32, ptr %18, align 4, !tbaa !36
  %103 = call noundef i32 %98(ptr noundef %99, ptr noundef %100, ptr noundef %101, i32 noundef %102)
  store i32 %103, ptr %6, align 4
  store i32 1, ptr %20, align 4
  br label %104

104:                                              ; preds = %95, %49
  call void @llvm.lifetime.end.p0(i64 4, ptr %19) #9
  call void @llvm.lifetime.end.p0(i64 4, ptr %18) #9
  call void @llvm.lifetime.end.p0(i64 4, ptr %17) #9
  call void @llvm.lifetime.end.p0(i64 4, ptr %16) #9
  call void @llvm.lifetime.end.p0(i64 2048, ptr %15) #9
  call void @llvm.lifetime.end.p0(i64 2048, ptr %14) #9
  call void @llvm.lifetime.end.p0(i64 8, ptr %13) #9
  call void @llvm.lifetime.end.p0(i64 8, ptr %12) #9
  %105 = load i32, ptr %6, align 4
  ret i32 %105
}