; Function Attrs: mustprogress uwtable
define internal noundef i32 @_ZL24u_printf_integer_handlerPK23u_printf_stream_handlerPvP13ULocaleBundlePK18u_printf_spec_infoPK9ufmt_args(ptr noundef readonly captures(none) %0, ptr noundef %1, ptr noundef %2, ptr noundef %3, ptr noundef readonly captures(none) %4) #0 {
  %6 = alloca [8 x i16], align 16
  %7 = alloca [1024 x i16], align 16
  %8 = alloca [1024 x i16], align 16
  %9 = alloca i32, align 4
  %10 = alloca i32, align 4
  %11 = load i64, ptr %4, align 8, !tbaa !20
  call void @llvm.lifetime.start.p0(i64 2048, ptr nonnull %7) #9
  call void @llvm.lifetime.start.p0(i64 2048, ptr nonnull %8) #9
  call void @llvm.lifetime.start.p0(i64 4, ptr nonnull %9) #9
  store i32 0, ptr %9, align 4, !tbaa !65
  store i16 0, ptr %8, align 16, !tbaa !12
  %12 = getelementptr inbounds nuw i8, ptr %3, i64 20
  %13 = load i8, ptr %12, align 4, !tbaa !56
  %.not = icmp eq i8 %13, 0
  br i1 %.not, label %16, label %14

14:                                               ; preds = %5
  %sext31 = shl i64 %11, 48
  %15 = ashr exact i64 %sext31, 48
  br label %21

16:                                               ; preds = %5
  %17 = getelementptr inbounds nuw i8, ptr %3, i64 22
  %18 = load i8, ptr %17, align 2, !tbaa !57
  %.not30 = icmp eq i8 %18, 0
  br i1 %.not30, label %19, label %21

19:                                               ; preds = %16
  %sext = shl i64 %11, 32
  %20 = ashr exact i64 %sext, 32
  br label %21

21:                                               ; preds = %16, %19, %14
  %.028 = phi i64 [ %15, %14 ], [ %11, %16 ], [ %20, %19 ]
  %22 = tail call ptr @u_locbund_getNumberFormat_77(ptr noundef %2, i32 noundef 1)
  %23 = icmp eq ptr %22, null
  br i1 %23, label %48, label %24

24:                                               ; preds = %21
  %25 = load i32, ptr %3, align 4, !tbaa !42
  %.not32 = icmp eq i32 %25, -1
  br i1 %.not32, label %29, label %26

26:                                               ; preds = %24
  %27 = tail call i32 @unum_getAttribute_77(ptr noundef nonnull %22, i32 noundef 4)
  %28 = load i32, ptr %3, align 4, !tbaa !42
  tail call void @unum_setAttribute_77(ptr noundef nonnull %22, i32 noundef 4, i32 noundef %28)
  br label %29

29:                                               ; preds = %26, %24
  %.026 = phi i32 [ %27, %26 ], [ -1, %24 ]
  %30 = getelementptr inbounds nuw i8, ptr %3, i64 17
  %31 = load i8, ptr %30, align 1, !tbaa !47
  %.not33 = icmp eq i8 %31, 0
  br i1 %.not33, label %_ZL17u_printf_set_signPPvPK18u_printf_spec_infoPDsPiP10UErrorCode.exit, label %32

32:                                               ; preds = %29
  %33 = call i32 @unum_getTextAttribute_77(ptr noundef nonnull %22, i32 noundef 0, ptr noundef nonnull %8, i32 noundef 2048, ptr noundef nonnull %9)
  %34 = getelementptr inbounds nuw i8, ptr %3, i64 15
  %35 = load i8, ptr %34, align 1, !tbaa !48
  %.not14.i = icmp eq i8 %35, 0
  br i1 %.not14.i, label %37, label %36

36:                                               ; preds = %32
  call void @unum_setTextAttribute_77(ptr noundef nonnull %22, i32 noundef 0, ptr noundef nonnull @_ZL9gSpaceStr, i32 noundef 1, ptr noundef nonnull %9)
  br label %_ZL17u_printf_set_signPPvPK18u_printf_spec_infoPDsPiP10UErrorCode.exit

37:                                               ; preds = %32
  call void @llvm.lifetime.start.p0(i64 16, ptr nonnull %6) #9
  %38 = call i32 @unum_getSymbol_77(ptr noundef nonnull %22, i32 noundef 7, ptr noundef nonnull %6, i32 noundef 8, ptr noundef nonnull %9)
  call void @unum_setTextAttribute_77(ptr noundef nonnull %22, i32 noundef 0, ptr noundef nonnull %6, i32 noundef %38, ptr noundef nonnull %9)
  call void @llvm.lifetime.end.p0(i64 16, ptr nonnull %6) #9
  br label %_ZL17u_printf_set_signPPvPK18u_printf_spec_infoPDsPiP10UErrorCode.exit

_ZL17u_printf_set_signPPvPK18u_printf_spec_infoPDsPiP10UErrorCode.exit: ; preds = %37, %36, %29
  %.0 = phi i32 [ 2048, %29 ], [ %33, %36 ], [ %33, %37 ]
  %39 = call i32 @unum_formatInt64_77(ptr noundef nonnull %22, i64 noundef %.028, ptr noundef nonnull %7, i32 noundef 1024, ptr noundef null, ptr noundef nonnull %9)
  %40 = load i32, ptr %9, align 4, !tbaa !65
  %.inv = icmp sgt i32 %40, 0
  %spec.select = select i1 %.inv, i32 0, i32 %39
  %.not35 = icmp eq i32 %.026, -1
  br i1 %.not35, label %42, label %41

41:                                               ; preds = %_ZL17u_printf_set_signPPvPK18u_printf_spec_infoPDsPiP10UErrorCode.exit
  call void @unum_setAttribute_77(ptr noundef nonnull %22, i32 noundef 4, i32 noundef %.026)
  br label %42

42:                                               ; preds = %41, %_ZL17u_printf_set_signPPvPK18u_printf_spec_infoPDsPiP10UErrorCode.exit
  %43 = load i8, ptr %30, align 1, !tbaa !47
  %.not36 = icmp eq i8 %43, 0
  br i1 %.not36, label %44, label %_ZL19u_printf_reset_signPPvPK18u_printf_spec_infoPDsPiP10UErrorCode.exit

_ZL19u_printf_reset_signPPvPK18u_printf_spec_infoPDsPiP10UErrorCode.exit: ; preds = %42
  call void @llvm.lifetime.start.p0(i64 4, ptr nonnull %10) #9
  store i32 0, ptr %10, align 4, !tbaa !65
  call void @unum_setTextAttribute_77(ptr noundef nonnull %22, i32 noundef 0, ptr noundef nonnull %8, i32 noundef %.0, ptr noundef nonnull %10)
  call void @llvm.lifetime.end.p0(i64 4, ptr nonnull %10) #9
  br label %44

44:                                               ; preds = %_ZL19u_printf_reset_signPPvPK18u_printf_spec_infoPDsPiP10UErrorCode.exit, %42
  %45 = getelementptr inbounds nuw i8, ptr %0, i64 8
  %46 = load ptr, ptr %45, align 8, !tbaa !64
  %47 = call noundef i32 %46(ptr noundef %1, ptr noundef nonnull %3, ptr noundef nonnull %7, i32 noundef %spec.select)
  br label %48

48:                                               ; preds = %21, %44
  %.027 = phi i32 [ %47, %44 ], [ 0, %21 ]
  call void @llvm.lifetime.end.p0(i64 4, ptr nonnull %9) #9
  call void @llvm.lifetime.end.p0(i64 2048, ptr nonnull %8) #9
  call void @llvm.lifetime.end.p0(i64 2048, ptr nonnull %7) #9
  ret i32 %.027
}